Certificate:
    Data:
        Version: 3 (0x2)
        Serial Number: 4 (0x4)
        Signature Algorithm: sha256WithRSAEncryption
        Issuer: C=PL, ST=Pomorskie, L=Gdansk, O=Test CA, Limited, OU=Server Research Department, CN=TestCA/emailAddress=test@example.com
        Validity
            Not Before: Jan 16 01:49:02 2022 GMT
            Not After : Oct 12 01:49:02 2024 GMT
        Subject: C=PL, ST=Pomorskie, L=Gdansk, O=Test Server, Limited, CN=Test Server
        Subject Public Key Info:
            Public Key Algorithm: rsaEncryption
                RSA Public-Key: (2048 bit)
                Modulus:
                    00:e1:24:f8:1f:58:b5:c7:7c:66:38:48:0a:3e:87:
                    72:64:d2:a4:c7:f8:32:08:48:b2:e8:b5:68:62:c0:
                    e9:dd:69:1c:0d:78:26:b9:26:65:96:a0:68:bb:2c:
                    86:23:c8:5e:c1:61:70:33:b9:39:79:88:7d:56:f3:
                    bc:92:6f:fa:e0:c1:83:f3:41:0e:7e:b5:cd:95:75:
                    16:a9:0c:02:da:fd:d9:fa:fc:2d:0b:76:13:b4:17:
                    8f:03:00:74:8b:1f:e1:76:e9:5c:d0:08:68:81:39:
                    eb:46:11:61:20:3d:f8:26:cf:1a:7a:df:fe:7f:34:
                    fe:08:dc:da:ad:05:fa:6e:2a:4f:80:b0:b2:5d:87:
                    42:0d:9e:72:b7:3d:0c:83:a1:7c:07:0a:3a:f2:80:
                    80:5d:d9:36:a1:ff:88:f5:df:3e:2a:07:40:39:b6:
                    4e:56:d9:db:24:b2:40:ea:78:c1:77:a4:97:14:8f:
                    c8:da:0e:71:37:3f:29:85:61:7c:46:c6:c2:71:c7:
                    9d:f6:9d:06:13:b2:32:b0:37:53:f5:72:86:a1:e6:
                    42:6a:2d:c8:bc:e2:a3:31:60:e8:17:57:5d:6d:aa:
                    5a:68:f0:e1:31:48:63:2e:81:6c:d6:3c:e7:42:7b:
                    29:86:07:fb:dd:92:a9:6c:91:89:b9:b0:57:f7:8e:
                    af:7f
                Exponent: 65537 (0x10001)
        X509v3 extensions:
            X509v3 Subject Key Identifier: 
                54:05:DE:0D:30:8A:75:54:A4:07:CC:35:7A:80:62:86:73:02:48:0F
            X509v3 Authority Key Identifier: 
                keyid:61:00:95:D5:BE:E2:8C:A1:37:4B:69:1D:D7:AF:7C:3C:D9:A1:80:1A

            X509v3 Basic Constraints: 
                CA:FALSE
            X509v3 Key Usage: 
                Digital Signature, Key Encipherment
            X509v3 Subject Alternative Name: 
                DNS:example.com, DNS:www.example.com, DNS:mail.example.com, DNS:ftp.example.com, DNS:localhost, IP Address:127.0.0.1, IP Address:0:0:0:0:0:0:0:1
            Netscape Comment: 
                OpenSSL Generated Certificate
    Signature Algorithm: sha256WithRSAEncryption
         b9:6c:61:94:33:8e:a0:36:3c:18:3c:1d:62:2d:7d:13:19:90:
         2b:14:e2:2e:29:7f:9f:f5:c5:3a:6c:63:06:36:8e:fd:c1:58:
         d7:ec:d3:e1:9f:a0:98:b1:0f:4d:5f:28:0f:fb:c3:bd:11:f2:
         e8:00:85:73:9d:74:6f:5e:b6:ba:c8:20:39:42:dd:87:9a:f6:
         23:d3:ab:2b:89:9e:45:70:5e:e6:dc:f2:c0:54:eb:06:c0:49:
         3a:05:10:da:13:2f:d9:5a:b4:20:30:a2:0a:8d:25:2d:2a:8f:
         69:ba:4e:4a:3b:25:0d:34:d2:4d:70:a9:03:d7:b2:32:5d:15:
         89:ed:8e:7d:73:ed:9e:d9:c7:c8:e3:ea:ce:a3:3b:d5:fa:c4:
         e7:f4:cf:bb:3c:1f:98:9d:73:fc:f9:4b:8a:24:9a:0b:2d:8f:
         7a:50:2a:0c:7b:d1:08:4c:11:65:ac:63:e7:45:c3:36:0c:ed:
         03:f3:3d:31:7a:a0:d3:db:33:ca:b7:07:8f:36:2f:ef:1c:26:
         4c:3e:fb:b7:22:35:90:7c:1f:97:db:23:86:c0:d8:9c:bc:17:
         46:9b:0a:6e:f5:8d:37:cc:85:ba:26:97:71:8b:7a:80:85:b9:
         79:68:75:04:11:5d:84:40:ec:e2:17:79:33:30:47:c5:d3:af:
         cf:d8:e3:cc:40:04:e0:d2:1d:a0:fb:bd:54:5c:e9:15:17:e2:
         72:8d:f0:fb:84:d5:14:93:3c:53:5a:05:cd:24:e1:31:30:bd:
         e3:ab:02:85:c5:ae:99:8c:ae:66:ae:5a:2f:a1:95:95:d1:4b:
         17:f6:64:c0:5e:f0:fa:6a:bf:c8:ec:f9:6f:15:6e:e9:f8:66:
         62:bd:ef:5e:5f:75:de:8c:33:b5:91:c4:1d:cf:10:c4:2c:e4:
         9e:f2:83:e7:32:c2:9d:b8:ec:96:b4:40:93:35:c3:40:47:2b:
         08:76:a7:3b:f7:a9:a9:bb:80:45:44:13:04:44:98:8c:ce:eb:
         27:e6:4f:c9:1e:a7:4c:d7:f2:75:b6:33:f8:d1:c9:8c:7f:57:
         27:fe:d3:5c:26:a7:97:d3:b7:ff:a4:40:87:54:15:98:20:15:
         e4:43:d8:21:a1:39:02:1a:fa:24:86:47:43:28:61:b1:17:a9:
         e4:c2:d7:e0:00:e8:5f:d8:60:c9:22:0e:bb:43:d7:c6:dc:bf:
         91:b5:da:55:98:2e:f3:e2:af:59:73:20:3f:8c:5e:9e:78:63:
         04:ba:5f:3c:89:f3:c9:17:9e:47:5d:25:5b:cb:83:3f:a9:39:
         3f:b2:89:a5:1b:41:b0:ff:4d:1c:66:fe:e2:1f:02:c6:ce:08:
         ab:69:5e:8e:90:fd:76:78
-----BEGIN CERTIFICATE-----
MIIFgDCCA2igAwIBAgIBBDANBgkqhkiG9w0BAQsFADCBpDELMAkGA1UEBhMCUEwx
EjAQBgNVBAgMCVBvbW9yc2tpZTEPMA0GA1UEBwwGR2RhbnNrMRkwFwYDVQQKDBBU
ZXN0IENBLCBMaW1pdGVkMSMwIQYDVQQLDBpTZXJ2ZXIgUmVzZWFyY2ggRGVwYXJ0
bWVudDEPMA0GA1UEAwwGVGVzdENBMR8wHQYJKoZIhvcNAQkBFhB0ZXN0QGV4YW1w
bGUuY29tMB4XDTIyMDExNjAxNDkwMloXDTI0MTAxMjAxNDkwMlowZzELMAkGA1UE
BhMCUEwxEjAQBgNVBAgMCVBvbW9yc2tpZTEPMA0GA1UEBwwGR2RhbnNrMR0wGwYD
VQQKDBRUZXN0IFNlcnZlciwgTGltaXRlZDEUMBIGA1UEAwwLVGVzdCBTZXJ2ZXIw
ggEiMA0GCSqGSIb3DQEBAQUAA4IBDwAwggEKAoIBAQDhJPgfWLXHfGY4SAo+h3Jk
0qTH+DIISLLotWhiwOndaRwNeCa5JmWWoGi7LIYjyF7BYXAzuTl5iH1W87ySb/rg
wYPzQQ5+tc2VdRapDALa/dn6/C0LdhO0F48DAHSLH+F26VzQCGiBOetGEWEgPfgm
zxp63/5/NP4I3NqtBfpuKk+AsLJdh0INnnK3PQyDoXwHCjrygIBd2Tah/4j13z4q
B0A5tk5W2dskskDqeMF3pJcUj8jaDnE3PymFYXxGxsJxx532nQYTsjKwN1P1coah
5kJqLci84qMxYOgXV11tqlpo8OExSGMugWzWPOdCeymGB/vdkqlskYm5sFf3jq9/
AgMBAAGjgfgwgfUwHQYDVR0OBBYEFFQF3g0winVUpAfMNXqAYoZzAkgPMB8GA1Ud
IwQYMBaAFGEAldW+4oyhN0tpHdevfDzZoYAaMAkGA1UdEwQCMAAwCwYDVR0PBAQD
AgWgMG0GA1UdEQRmMGSCC2V4YW1wbGUuY29tgg93d3cuZXhhbXBsZS5jb22CEG1h
aWwuZXhhbXBsZS5jb22CD2Z0cC5leGFtcGxlLmNvbYIJbG9jYWxob3N0hwR/AAAB
hxAAAAAAAAAAAAAAAAAAAAABMCwGCWCGSAGG+EIBDQQfFh1PcGVuU1NMIEdlbmVy
YXRlZCBDZXJ0aWZpY2F0ZTANBgkqhkiG9w0BAQsFAAOCAgEAuWxhlDOOoDY8GDwd
Yi19ExmQKxTiLil/n/XFOmxjBjaO/cFY1+zT4Z+gmLEPTV8oD/vDvRHy6ACFc510
b162usggOULdh5r2I9OrK4meRXBe5tzywFTrBsBJOgUQ2hMv2Vq0IDCiCo0lLSqP
abpOSjslDTTSTXCpA9eyMl0Vie2OfXPtntnHyOPqzqM71frE5/TPuzwfmJ1z/PlL
iiSaCy2PelAqDHvRCEwRZaxj50XDNgztA/M9MXqg09szyrcHjzYv7xwmTD77tyI1
kHwfl9sjhsDYnLwXRpsKbvWNN8yFuiaXcYt6gIW5eWh1BBFdhEDs4hd5MzBHxdOv
z9jjzEAE4NIdoPu9VFzpFRfico3w+4TVFJM8U1oFzSThMTC946sChcWumYyuZq5a
L6GVldFLF/ZkwF7w+mq/yOz5bxVu6fhmYr3vXl913owztZHEHc8QxCzknvKD5zLC
nbjslrRAkzXDQEcrCHanO/epqbuARUQTBESYjM7rJ+ZPyR6nTNfydbYz+NHJjH9X
J/7TXCanl9O3/6RAh1QVmCAV5EPYIaE5Ahr6JIZHQyhhsRep5MLX4ADoX9hgySIO
u0PXxty/kbXaVZgu8+KvWXMgP4xennhjBLpfPInzyReeR10lW8uDP6k5P7KJpRtB
sP9NHGb+4h8Cxs4Iq2lejpD9dng=
-----END CERTIFICATE-----
